; Function Attrs: nounwind uwtable
define dso_local range(i32 0, 2) i32 @setup_tests() local_unnamed_addr #1 {
  %1 = tail call i32 @test_skip_common_options() #9
  %.not = icmp eq i32 %1, 0
  br i1 %.not, label %2, label %3

2:                                                ; preds = %0
  tail call void (ptr, i32, ptr, ...) @test_error(ptr noundef nonnull @.str.14, i32 noundef 412, ptr noundef nonnull @.str.15) #9
  br label %13

3:                                                ; preds = %0
  %4 = tail call ptr @test_get_argument(i64 noundef 0) #9
  store ptr %4, ptr @basedomain, align 8, !tbaa !4
  %5 = tail call i32 @test_ptr(ptr noundef nonnull @.str.14, i32 noundef 416, ptr noundef nonnull @.str.16, ptr noundef %4) #9
  %.not1 = icmp eq i32 %5, 0
  br i1 %.not1, label %13, label %6

6:                                                ; preds = %3
  %7 = tail call ptr @test_get_argument(i64 noundef 1) #9
  store ptr %7, ptr @CAfile, align 8, !tbaa !4
  %8 = tail call i32 @test_ptr(ptr noundef nonnull @.str.14, i32 noundef 417, ptr noundef nonnull @.str.17, ptr noundef %7) #9
  %.not2 = icmp eq i32 %8, 0
  br i1 %.not2, label %13, label %9

9:                                                ; preds = %6
  %10 = tail call ptr @test_get_argument(i64 noundef 2) #9
  store ptr %10, ptr @tlsafile, align 8, !tbaa !4
  %11 = tail call i32 @test_ptr(ptr noundef nonnull @.str.14, i32 noundef 418, ptr noundef nonnull @.str.18, ptr noundef %10) #9
  %.not3 = icmp eq i32 %11, 0
  br i1 %.not3, label %13, label %12

12:                                               ; preds = %9
  tail call void @add_test(ptr noundef nonnull @.str.19, ptr noundef nonnull @run_tlsatest) #9
  br label %13

13:                                               ; preds = %3, %6, %9, %12, %2
  %.0 = phi i32 [ 1, %12 ], [ 0, %2 ], [ 0, %9 ], [ 0, %6 ], [ 0, %3 ]
  ret i32 %.0
}